
_main:

;MyProject.c,1 :: 		void main() {
;MyProject.c,2 :: 		TRISB = 0b00000000;
	CLRF       TRISB+0
;MyProject.c,3 :: 		PORTB = 0b00000000;
	CLRF       PORTB+0
;MyProject.c,5 :: 		while(1){
L_main0:
;MyProject.c,6 :: 		PORTB = 0b11000000;
	MOVLW      192
	MOVWF      PORTB+0
;MyProject.c,7 :: 		Delay_ms(300);
	MOVLW      4
	MOVWF      R11+0
	MOVLW      12
	MOVWF      R12+0
	MOVLW      51
	MOVWF      R13+0
L_main2:
	DECFSZ     R13+0, 1
	GOTO       L_main2
	DECFSZ     R12+0, 1
	GOTO       L_main2
	DECFSZ     R11+0, 1
	GOTO       L_main2
	NOP
	NOP
;MyProject.c,8 :: 		PORTB = 0b01100000;
	MOVLW      96
	MOVWF      PORTB+0
;MyProject.c,9 :: 		Delay_ms(300);
	MOVLW      4
	MOVWF      R11+0
	MOVLW      12
	MOVWF      R12+0
	MOVLW      51
	MOVWF      R13+0
L_main3:
	DECFSZ     R13+0, 1
	GOTO       L_main3
	DECFSZ     R12+0, 1
	GOTO       L_main3
	DECFSZ     R11+0, 1
	GOTO       L_main3
	NOP
	NOP
;MyProject.c,10 :: 		PORTB = 0b00110000;
	MOVLW      48
	MOVWF      PORTB+0
;MyProject.c,11 :: 		Delay_ms(300);
	MOVLW      4
	MOVWF      R11+0
	MOVLW      12
	MOVWF      R12+0
	MOVLW      51
	MOVWF      R13+0
L_main4:
	DECFSZ     R13+0, 1
	GOTO       L_main4
	DECFSZ     R12+0, 1
	GOTO       L_main4
	DECFSZ     R11+0, 1
	GOTO       L_main4
	NOP
	NOP
;MyProject.c,12 :: 		PORTB = 0b00011000;
	MOVLW      24
	MOVWF      PORTB+0
;MyProject.c,13 :: 		Delay_ms(300);
	MOVLW      4
	MOVWF      R11+0
	MOVLW      12
	MOVWF      R12+0
	MOVLW      51
	MOVWF      R13+0
L_main5:
	DECFSZ     R13+0, 1
	GOTO       L_main5
	DECFSZ     R12+0, 1
	GOTO       L_main5
	DECFSZ     R11+0, 1
	GOTO       L_main5
	NOP
	NOP
;MyProject.c,14 :: 		PORTB = 0b00001100;
	MOVLW      12
	MOVWF      PORTB+0
;MyProject.c,15 :: 		Delay_ms(300);
	MOVLW      4
	MOVWF      R11+0
	MOVLW      12
	MOVWF      R12+0
	MOVLW      51
	MOVWF      R13+0
L_main6:
	DECFSZ     R13+0, 1
	GOTO       L_main6
	DECFSZ     R12+0, 1
	GOTO       L_main6
	DECFSZ     R11+0, 1
	GOTO       L_main6
	NOP
	NOP
;MyProject.c,16 :: 		PORTB = 0b00000110;
	MOVLW      6
	MOVWF      PORTB+0
;MyProject.c,17 :: 		Delay_ms(300);
	MOVLW      4
	MOVWF      R11+0
	MOVLW      12
	MOVWF      R12+0
	MOVLW      51
	MOVWF      R13+0
L_main7:
	DECFSZ     R13+0, 1
	GOTO       L_main7
	DECFSZ     R12+0, 1
	GOTO       L_main7
	DECFSZ     R11+0, 1
	GOTO       L_main7
	NOP
	NOP
;MyProject.c,18 :: 		PORTB = 0b00000011;
	MOVLW      3
	MOVWF      PORTB+0
;MyProject.c,19 :: 		Delay_ms(300);
	MOVLW      4
	MOVWF      R11+0
	MOVLW      12
	MOVWF      R12+0
	MOVLW      51
	MOVWF      R13+0
L_main8:
	DECFSZ     R13+0, 1
	GOTO       L_main8
	DECFSZ     R12+0, 1
	GOTO       L_main8
	DECFSZ     R11+0, 1
	GOTO       L_main8
	NOP
	NOP
;MyProject.c,20 :: 		PORTB = 0b00000001;
	MOVLW      1
	MOVWF      PORTB+0
;MyProject.c,21 :: 		Delay_ms(300);
	MOVLW      4
	MOVWF      R11+0
	MOVLW      12
	MOVWF      R12+0
	MOVLW      51
	MOVWF      R13+0
L_main9:
	DECFSZ     R13+0, 1
	GOTO       L_main9
	DECFSZ     R12+0, 1
	GOTO       L_main9
	DECFSZ     R11+0, 1
	GOTO       L_main9
	NOP
	NOP
;MyProject.c,22 :: 		PORTB = 0b00000000;
	CLRF       PORTB+0
;MyProject.c,23 :: 		Delay_ms(300);
	MOVLW      4
	MOVWF      R11+0
	MOVLW      12
	MOVWF      R12+0
	MOVLW      51
	MOVWF      R13+0
L_main10:
	DECFSZ     R13+0, 1
	GOTO       L_main10
	DECFSZ     R12+0, 1
	GOTO       L_main10
	DECFSZ     R11+0, 1
	GOTO       L_main10
	NOP
	NOP
;MyProject.c,24 :: 		}
	GOTO       L_main0
;MyProject.c,25 :: 		}
L_end_main:
	GOTO       $+0
; end of _main
